target datalayout = "e-m:e-p270:32:32-p271:32:32-p272:64:64-i64:64-i128:128-f80:128-n8:16:32:64-S128"
target triple = "x86_64-pc-linux-gnu"

%struct.libraw_area_t = type { i16, i16, i16, i16 }

; Function Attrs: mustprogress uwtable
define i64 @_ZN6LibRaw13get_CanonAreaEv(ptr noundef nonnull align 8 dereferenceable(767680) %0) #0 align 2 {
  %2 = alloca %struct.libraw_area_t, align 2
  %3 = alloca ptr, align 8
  store ptr %0, ptr %3, align 8, !tbaa !6
  %4 = load ptr, ptr %3, align 8
  call void @llvm.memset.p0.i64(ptr align 2 %2, i8 0, i64 8, i1 false)
  %5 = call noundef zeroext i16 @_ZN6LibRaw4get2Ev(ptr noundef nonnull align 8 dereferenceable(767680) %4)
  %6 = getelementptr inbounds nuw %struct.libraw_area_t, ptr %2, i32 0, i32 1
  store i16 %5, ptr %6, align 2, !tbaa !11
  %7 = call noundef zeroext i16 @_ZN6LibRaw4get2Ev(ptr noundef nonnull align 8 dereferenceable(767680) %4)
  %8 = getelementptr inbounds nuw %struct.libraw_area_t, ptr %2, i32 0, i32 0
  store i16 %7, ptr %8, align 2, !tbaa !14
  %9 = call noundef zeroext i16 @_ZN6LibRaw4get2Ev(ptr noundef nonnull align 8 dereferenceable(767680) %4)
  %10 = getelementptr inbounds nuw %struct.libraw_area_t, ptr %2, i32 0, i32 3
  store i16 %9, ptr %10, align 2, !tbaa !15
  %11 = call noundef zeroext i16 @_ZN6LibRaw4get2Ev(ptr noundef nonnull align 8 dereferenceable(767680) %4)
  %12 = getelementptr inbounds nuw %struct.libraw_area_t, ptr %2, i32 0, i32 2
  store i16 %11, ptr %12, align 2, !tbaa !16
  %13 = load i64, ptr %2, align 2
  ret i64 %13
}