; Function Attrs: mustprogress uwtable
define i64 @_ZN6LibRaw13get_CanonAreaEv(ptr noundef nonnull align 8 dereferenceable(767680) %0) local_unnamed_addr #0 align 2 {
  %2 = tail call noundef zeroext i16 @_ZN6LibRaw4get2Ev(ptr noundef nonnull align 8 dereferenceable(767680) %0)
  %3 = tail call noundef zeroext i16 @_ZN6LibRaw4get2Ev(ptr noundef nonnull align 8 dereferenceable(767680) %0)
  %4 = tail call noundef zeroext i16 @_ZN6LibRaw4get2Ev(ptr noundef nonnull align 8 dereferenceable(767680) %0)
  %5 = tail call noundef zeroext i16 @_ZN6LibRaw4get2Ev(ptr noundef nonnull align 8 dereferenceable(767680) %0)
  %.sroa.5.0.insert.ext = zext i16 %4 to i64
  %.sroa.5.0.insert.shift = shl nuw i64 %.sroa.5.0.insert.ext, 48
  %.sroa.4.0.insert.ext = zext i16 %5 to i64
  %.sroa.4.0.insert.shift = shl nuw nsw i64 %.sroa.4.0.insert.ext, 32
  %.sroa.4.0.insert.insert = or disjoint i64 %.sroa.4.0.insert.shift, %.sroa.5.0.insert.shift
  %.sroa.3.0.insert.ext = zext i16 %2 to i64
  %.sroa.3.0.insert.shift = shl nuw nsw i64 %.sroa.3.0.insert.ext, 16
  %.sroa.3.0.insert.insert = or disjoint i64 %.sroa.4.0.insert.insert, %.sroa.3.0.insert.shift
  %.sroa.0.0.insert.ext = zext i16 %3 to i64
  %.sroa.0.0.insert.insert = or disjoint i64 %.sroa.3.0.insert.insert, %.sroa.0.0.insert.ext
  ret i64 %.sroa.0.0.insert.insert
}